target datalayout = "e-m:e-p270:32:32-p271:32:32-p272:64:64-i64:64-i128:128-f80:128-n8:16:32:64-S128"
target triple = "x86_64-pc-linux-gnu"

%struct.VVCLocalContext = type { i8, i8, i8, i8, i32, i32, [4 x i8], [3276800 x i8], [16384 x i16], [16384 x i16], [16384 x i16], [32768 x i8], [332800 x i8], [368640 x i8], [368640 x i8], [17424 x i32], %struct.anon, %struct.anon.0, ptr, [2 x [1024 x %struct.ReconstructedArea]], [2 x i32], %struct.NeighbourAvailable, i32, ptr, ptr, ptr, ptr }
%struct.anon = type { i32, i8, i32, i32, i32, [3 x i32], i32, i32, i32, i32, i32, i32 }
%struct.anon.0 = type { i32, i32, i32 }
%struct.ReconstructedArea = type { i32, i32, i32, i32 }
%struct.NeighbourAvailable = type { i32, i32, i32, i32, i32 }
%struct.EntryPoint = type { i8, [3 x i32], [3 x %struct.Palette], [378 x %struct.VVCCabacState], %struct.CABACContext, i32, i32, i8, [7 x i8], [5 x %struct.MvField], i32, [4 x i8], [5 x %struct.MvField], i32 }
%struct.Palette = type { i8, [63 x i16] }
%struct.VVCCabacState = type { [2 x i16], [2 x i8] }
%struct.CABACContext = type { i32, i32, ptr, ptr, ptr }
%struct.MvField = type { [2 x %struct.Mv], [2 x i8], i8, i8, i8, i8 }
%struct.Mv = type { i32, i32 }

; Function Attrs: nounwind uwtable
define internal void @refill(ptr noundef %0) #0 {
  %2 = alloca ptr, align 8
  store ptr %0, ptr %2, align 8, !tbaa !104
  %3 = load ptr, ptr %2, align 8, !tbaa !104
  %4 = getelementptr inbounds nuw %struct.CABACContext, ptr %3, i32 0, i32 3
  %5 = load ptr, ptr %4, align 8, !tbaa !209
  %6 = getelementptr inbounds i8, ptr %5, i64 0
  %7 = load i8, ptr %6, align 1, !tbaa !101
  %8 = zext i8 %7 to i32
  %9 = shl i32 %8, 9
  %10 = load ptr, ptr %2, align 8, !tbaa !104
  %11 = getelementptr inbounds nuw %struct.CABACContext, ptr %10, i32 0, i32 3
  %12 = load ptr, ptr %11, align 8, !tbaa !209
  %13 = getelementptr inbounds i8, ptr %12, i64 1
  %14 = load i8, ptr %13, align 1, !tbaa !101
  %15 = zext i8 %14 to i32
  %16 = shl i32 %15, 1
  %17 = add nsw i32 %9, %16
  %18 = load ptr, ptr %2, align 8, !tbaa !104
  %19 = getelementptr inbounds nuw %struct.CABACContext, ptr %18, i32 0, i32 0
  %20 = load i32, ptr %19, align 8, !tbaa !108
  %21 = add nsw i32 %20, %17
  store i32 %21, ptr %19, align 8, !tbaa !108
  %22 = load ptr, ptr %2, align 8, !tbaa !104
  %23 = getelementptr inbounds nuw %struct.CABACContext, ptr %22, i32 0, i32 0
  %24 = load i32, ptr %23, align 8, !tbaa !108
  %25 = sub nsw i32 %24, 65535
  store i32 %25, ptr %23, align 8, !tbaa !108
  %26 = load ptr, ptr %2, align 8, !tbaa !104
  %27 = getelementptr inbounds nuw %struct.CABACContext, ptr %26, i32 0, i32 3
  %28 = load ptr, ptr %27, align 8, !tbaa !209
  %29 = load ptr, ptr %2, align 8, !tbaa !104
  %30 = getelementptr inbounds nuw %struct.CABACContext, ptr %29, i32 0, i32 4
  %31 = load ptr, ptr %30, align 8, !tbaa !211
  %32 = icmp ult ptr %28, %31
  br i1 %32, label %33, label %38

33:                                               ; preds = %1
  %34 = load ptr, ptr %2, align 8, !tbaa !104
  %35 = getelementptr inbounds nuw %struct.CABACContext, ptr %34, i32 0, i32 3
  %36 = load ptr, ptr %35, align 8, !tbaa !209
  %37 = getelementptr inbounds i8, ptr %36, i64 2
  store ptr %37, ptr %35, align 8, !tbaa !209
  br label %38

38:                                               ; preds = %33, %1
  ret void
}

; Function Attrs: inlinehint nounwind uwtable
define internal void @renorm_cabac_decoder_once(ptr noundef %0) #2 {
  %2 = alloca ptr, align 8
  %3 = alloca i32, align 4
  store ptr %0, ptr %2, align 8, !tbaa !104
  call void @llvm.lifetime.start.p0(i64 4, ptr %3) #9
  %4 = load ptr, ptr %2, align 8, !tbaa !104
  %5 = getelementptr inbounds nuw %struct.CABACContext, ptr %4, i32 0, i32 1
  %6 = load i32, ptr %5, align 4, !tbaa !106
  %7 = sub nsw i32 %6, 256
  %8 = lshr i32 %7, 31
  store i32 %8, ptr %3, align 4, !tbaa !9
  %9 = load i32, ptr %3, align 4, !tbaa !9
  %10 = load ptr, ptr %2, align 8, !tbaa !104
  %11 = getelementptr inbounds nuw %struct.CABACContext, ptr %10, i32 0, i32 1
  %12 = load i32, ptr %11, align 4, !tbaa !106
  %13 = shl i32 %12, %9
  store i32 %13, ptr %11, align 4, !tbaa !106
  %14 = load i32, ptr %3, align 4, !tbaa !9
  %15 = load ptr, ptr %2, align 8, !tbaa !104
  %16 = getelementptr inbounds nuw %struct.CABACContext, ptr %15, i32 0, i32 0
  %17 = load i32, ptr %16, align 8, !tbaa !108
  %18 = shl i32 %17, %14
  store i32 %18, ptr %16, align 8, !tbaa !108
  %19 = load ptr, ptr %2, align 8, !tbaa !104
  %20 = getelementptr inbounds nuw %struct.CABACContext, ptr %19, i32 0, i32 0
  %21 = load i32, ptr %20, align 8, !tbaa !108
  %22 = and i32 %21, 65535
  %23 = icmp ne i32 %22, 0
  br i1 %23, label %26, label %24

24:                                               ; preds = %1
  %25 = load ptr, ptr %2, align 8, !tbaa !104
  call void @refill(ptr noundef %25)
  br label %26

26:                                               ; preds = %24, %1
  call void @llvm.lifetime.end.p0(i64 4, ptr %3) #9
  ret void
}

; Function Attrs: nounwind uwtable
define internal i32 @get_cabac_terminate(ptr noundef %0) #0 {
  %2 = alloca i32, align 4
  %3 = alloca ptr, align 8
  store ptr %0, ptr %3, align 8, !tbaa !104
  %4 = load ptr, ptr %3, align 8, !tbaa !104
  %5 = getelementptr inbounds nuw %struct.CABACContext, ptr %4, i32 0, i32 1
  %6 = load i32, ptr %5, align 4, !tbaa !106
  %7 = sub nsw i32 %6, 2
  store i32 %7, ptr %5, align 4, !tbaa !106
  %8 = load ptr, ptr %3, align 8, !tbaa !104
  %9 = getelementptr inbounds nuw %struct.CABACContext, ptr %8, i32 0, i32 0
  %10 = load i32, ptr %9, align 8, !tbaa !108
  %11 = load ptr, ptr %3, align 8, !tbaa !104
  %12 = getelementptr inbounds nuw %struct.CABACContext, ptr %11, i32 0, i32 1
  %13 = load i32, ptr %12, align 4, !tbaa !106
  %14 = shl i32 %13, 17
  %15 = icmp slt i32 %10, %14
  br i1 %15, label %16, label %18

16:                                               ; preds = %1
  %17 = load ptr, ptr %3, align 8, !tbaa !104
  call void @renorm_cabac_decoder_once(ptr noundef %17)
  store i32 0, ptr %2, align 4
  br label %29

18:                                               ; preds = %1
  %19 = load ptr, ptr %3, align 8, !tbaa !104
  %20 = getelementptr inbounds nuw %struct.CABACContext, ptr %19, i32 0, i32 3
  %21 = load ptr, ptr %20, align 8, !tbaa !209
  %22 = load ptr, ptr %3, align 8, !tbaa !104
  %23 = getelementptr inbounds nuw %struct.CABACContext, ptr %22, i32 0, i32 2
  %24 = load ptr, ptr %23, align 8, !tbaa !210
  %25 = ptrtoint ptr %21 to i64
  %26 = ptrtoint ptr %24 to i64
  %27 = sub i64 %25, %26
  %28 = trunc i64 %27 to i32
  store i32 %28, ptr %2, align 4
  br label %29

29:                                               ; preds = %18, %16
  %30 = load i32, ptr %2, align 4
  ret i32 %30
}

; Function Attrs: nounwind uwtable
define i32 @ff_vvc_end_of_slice_flag_decode(ptr noundef %0) #0 {
  %2 = alloca ptr, align 8
  store ptr %0, ptr %2, align 8, !tbaa !4
  %3 = load ptr, ptr %2, align 8, !tbaa !4
  %4 = getelementptr inbounds nuw %struct.VVCLocalContext, ptr %3, i32 0, i32 25
  %5 = load ptr, ptr %4, align 16, !tbaa !71
  %6 = getelementptr inbounds nuw %struct.EntryPoint, ptr %5, i32 0, i32 4
  %7 = call i32 @get_cabac_terminate(ptr noundef %6)
  ret i32 %7
}